target datalayout = "e-m:e-p270:32:32-p271:32:32-p272:64:64-i64:64-i128:128-f80:128-n8:16:32:64-S128"
target triple = "x86_64-pc-linux-gnu"

%struct.H5C_cache_entry_t = type { ptr, i64, i64, ptr, i8, ptr, i8, i8, i8, i8, i32, i8, i8, i8, i8, i8, i32, ptr, i32, i32, i32, i32, i32, i8, i8, ptr, ptr, ptr, ptr, ptr, ptr, i8, i32, i8, i64, ptr, i64, i64, i32, i8, i32, i32, i8, ptr, ptr, ptr }
%struct.H5FA_hdr_t = type { %struct.H5C_cache_entry_t, %struct.H5FA_create_t, i64, %struct.H5FA_stat_t, i64, i64, i64, ptr, i64, i8, i64, i64, ptr, i8, ptr, ptr }
%struct.H5FA_create_t = type { ptr, i8, i8, i64 }
%struct.H5FA_stat_t = type { i64, i64, i64 }
%struct.H5FA_class_t = type { i32, ptr, i64, ptr, ptr, ptr, ptr, ptr, ptr, ptr, ptr }

@H5FA_init_g = external global i8, align 1
@H5_libterm_g = external global i8, align 1
@.str.6 = private unnamed_addr constant [5 x i8] c"FAHD\00", align 1

; Function Attrs: nounwind uwtable
define internal i32 @H5FA__cache_hdr_serialize(ptr noundef %0, ptr noundef %1, i64 noundef %2, ptr noundef %3) #0 {
  %5 = alloca ptr, align 8
  %6 = alloca ptr, align 8
  %7 = alloca i64, align 8
  %8 = alloca ptr, align 8
  %9 = alloca ptr, align 8
  %10 = alloca ptr, align 8
  %11 = alloca i32, align 4
  %12 = alloca i64, align 8
  %13 = alloca i64, align 8
  %14 = alloca ptr, align 8
  store ptr %0, ptr %5, align 8, !tbaa !58
  store ptr %1, ptr %6, align 8, !tbaa !3
  store i64 %2, ptr %7, align 8, !tbaa !19
  store ptr %3, ptr %8, align 8, !tbaa !3
  call void @llvm.lifetime.start.p0(i64 8, ptr %9) #7
  %15 = load ptr, ptr %8, align 8, !tbaa !3
  store ptr %15, ptr %9, align 8, !tbaa !26
  call void @llvm.lifetime.start.p0(i64 8, ptr %10) #7
  %16 = load ptr, ptr %6, align 8, !tbaa !3
  store ptr %16, ptr %10, align 8, !tbaa !20
  call void @llvm.lifetime.start.p0(i64 4, ptr %11) #7
  %17 = load i8, ptr @H5FA_init_g, align 1, !tbaa !11, !range !13, !noundef !14
  %18 = trunc i8 %17 to i1
  br i1 %18, label %23, label %19

19:                                               ; preds = %4
  %20 = load i8, ptr @H5_libterm_g, align 1, !tbaa !11, !range !13, !noundef !14
  %21 = trunc i8 %20 to i1
  %22 = xor i1 %21, true
  br label %23

23:                                               ; preds = %19, %4
  %24 = phi i1 [ true, %4 ], [ %22, %19 ]
  %25 = xor i1 %24, true
  %26 = xor i1 %25, true
  %27 = zext i1 %26 to i32
  %28 = sext i32 %27 to i64
  %29 = call i64 @llvm.expect.i64(i64 %28, i64 1)
  %30 = icmp ne i64 %29, 0
  br i1 %30, label %31, label %211

31:                                               ; preds = %23
  %32 = load ptr, ptr %10, align 8, !tbaa !20
  call void @llvm.memcpy.p0.p0.i64(ptr align 1 %32, ptr align 1 @.str.6, i64 4, i1 false)
  %33 = load ptr, ptr %10, align 8, !tbaa !20
  %34 = getelementptr inbounds i8, ptr %33, i64 4
  store ptr %34, ptr %10, align 8, !tbaa !20
  %35 = load ptr, ptr %10, align 8, !tbaa !20
  %36 = getelementptr inbounds nuw i8, ptr %35, i32 1
  store ptr %36, ptr %10, align 8, !tbaa !20
  store i8 0, ptr %35, align 1, !tbaa !41
  %37 = load ptr, ptr %9, align 8, !tbaa !26
  %38 = getelementptr inbounds nuw %struct.H5FA_hdr_t, ptr %37, i32 0, i32 1
  %39 = getelementptr inbounds nuw %struct.H5FA_create_t, ptr %38, i32 0, i32 0
  %40 = load ptr, ptr %39, align 8, !tbaa !43
  %41 = getelementptr inbounds nuw %struct.H5FA_class_t, ptr %40, i32 0, i32 0
  %42 = load i32, ptr %41, align 8, !tbaa !59
  %43 = trunc i32 %42 to i8
  %44 = load ptr, ptr %10, align 8, !tbaa !20
  %45 = getelementptr inbounds nuw i8, ptr %44, i32 1
  store ptr %45, ptr %10, align 8, !tbaa !20
  store i8 %43, ptr %44, align 1, !tbaa !41
  %46 = load ptr, ptr %9, align 8, !tbaa !26
  %47 = getelementptr inbounds nuw %struct.H5FA_hdr_t, ptr %46, i32 0, i32 1
  %48 = getelementptr inbounds nuw %struct.H5FA_create_t, ptr %47, i32 0, i32 1
  %49 = load i8, ptr %48, align 8, !tbaa !44
  %50 = load ptr, ptr %10, align 8, !tbaa !20
  %51 = getelementptr inbounds nuw i8, ptr %50, i32 1
  store ptr %51, ptr %10, align 8, !tbaa !20
  store i8 %49, ptr %50, align 1, !tbaa !41
  %52 = load ptr, ptr %9, align 8, !tbaa !26
  %53 = getelementptr inbounds nuw %struct.H5FA_hdr_t, ptr %52, i32 0, i32 1
  %54 = getelementptr inbounds nuw %struct.H5FA_create_t, ptr %53, i32 0, i32 2
  %55 = load i8, ptr %54, align 1, !tbaa !45
  %56 = load ptr, ptr %10, align 8, !tbaa !20
  %57 = getelementptr inbounds nuw i8, ptr %56, i32 1
  store ptr %57, ptr %10, align 8, !tbaa !20
  store i8 %55, ptr %56, align 1, !tbaa !41
  br label %58

58:                                               ; preds = %31
  %59 = load ptr, ptr %5, align 8, !tbaa !58
  %60 = call zeroext i8 @H5F_sizeof_size(ptr noundef %59)
  %61 = zext i8 %60 to i32
  switch i32 %61, label %166 [
    i32 4, label %62
    i32 8, label %105
    i32 2, label %141
  ]

62:                                               ; preds = %58
  br label %63

63:                                               ; preds = %62
  %64 = load ptr, ptr %9, align 8, !tbaa !26
  %65 = getelementptr inbounds nuw %struct.H5FA_hdr_t, ptr %64, i32 0, i32 3
  %66 = getelementptr inbounds nuw %struct.H5FA_stat_t, ptr %65, i32 0, i32 2
  %67 = load i64, ptr %66, align 8, !tbaa !61
  %68 = and i64 %67, 255
  %69 = trunc i64 %68 to i8
  %70 = load ptr, ptr %10, align 8, !tbaa !20
  store i8 %69, ptr %70, align 1, !tbaa !41
  %71 = load ptr, ptr %10, align 8, !tbaa !20
  %72 = getelementptr inbounds nuw i8, ptr %71, i32 1
  store ptr %72, ptr %10, align 8, !tbaa !20
  %73 = load ptr, ptr %9, align 8, !tbaa !26
  %74 = getelementptr inbounds nuw %struct.H5FA_hdr_t, ptr %73, i32 0, i32 3
  %75 = getelementptr inbounds nuw %struct.H5FA_stat_t, ptr %74, i32 0, i32 2
  %76 = load i64, ptr %75, align 8, !tbaa !61
  %77 = lshr i64 %76, 8
  %78 = and i64 %77, 255
  %79 = trunc i64 %78 to i8
  %80 = load ptr, ptr %10, align 8, !tbaa !20
  store i8 %79, ptr %80, align 1, !tbaa !41
  %81 = load ptr, ptr %10, align 8, !tbaa !20
  %82 = getelementptr inbounds nuw i8, ptr %81, i32 1
  store ptr %82, ptr %10, align 8, !tbaa !20
  %83 = load ptr, ptr %9, align 8, !tbaa !26
  %84 = getelementptr inbounds nuw %struct.H5FA_hdr_t, ptr %83, i32 0, i32 3
  %85 = getelementptr inbounds nuw %struct.H5FA_stat_t, ptr %84, i32 0, i32 2
  %86 = load i64, ptr %85, align 8, !tbaa !61
  %87 = lshr i64 %86, 16
  %88 = and i64 %87, 255
  %89 = trunc i64 %88 to i8
  %90 = load ptr, ptr %10, align 8, !tbaa !20
  store i8 %89, ptr %90, align 1, !tbaa !41
  %91 = load ptr, ptr %10, align 8, !tbaa !20
  %92 = getelementptr inbounds nuw i8, ptr %91, i32 1
  store ptr %92, ptr %10, align 8, !tbaa !20
  %93 = load ptr, ptr %9, align 8, !tbaa !26
  %94 = getelementptr inbounds nuw %struct.H5FA_hdr_t, ptr %93, i32 0, i32 3
  %95 = getelementptr inbounds nuw %struct.H5FA_stat_t, ptr %94, i32 0, i32 2
  %96 = load i64, ptr %95, align 8, !tbaa !61
  %97 = lshr i64 %96, 24
  %98 = and i64 %97, 255
  %99 = trunc i64 %98 to i8
  %100 = load ptr, ptr %10, align 8, !tbaa !20
  store i8 %99, ptr %100, align 1, !tbaa !41
  %101 = load ptr, ptr %10, align 8, !tbaa !20
  %102 = getelementptr inbounds nuw i8, ptr %101, i32 1
  store ptr %102, ptr %10, align 8, !tbaa !20
  br label %103

103:                                              ; preds = %63
  br label %104

104:                                              ; preds = %103
  br label %167

105:                                              ; preds = %58
  br label %106

106:                                              ; preds = %105
  call void @llvm.lifetime.start.p0(i64 8, ptr %12) #7
  %107 = load ptr, ptr %9, align 8, !tbaa !26
  %108 = getelementptr inbounds nuw %struct.H5FA_hdr_t, ptr %107, i32 0, i32 3
  %109 = getelementptr inbounds nuw %struct.H5FA_stat_t, ptr %108, i32 0, i32 2
  %110 = load i64, ptr %109, align 8, !tbaa !61
  store i64 %110, ptr %12, align 8, !tbaa !19
  call void @llvm.lifetime.start.p0(i64 8, ptr %13) #7
  call void @llvm.lifetime.start.p0(i64 8, ptr %14) #7
  %111 = load ptr, ptr %10, align 8, !tbaa !20
  store ptr %111, ptr %14, align 8, !tbaa !20
  store i64 0, ptr %13, align 8, !tbaa !19
  br label %112

112:                                              ; preds = %121, %106
  %113 = load i64, ptr %13, align 8, !tbaa !19
  %114 = icmp ult i64 %113, 8
  br i1 %114, label %115, label %126

115:                                              ; preds = %112
  %116 = load i64, ptr %12, align 8, !tbaa !19
  %117 = and i64 %116, 255
  %118 = trunc i64 %117 to i8
  %119 = load ptr, ptr %14, align 8, !tbaa !20
  %120 = getelementptr inbounds nuw i8, ptr %119, i32 1
  store ptr %120, ptr %14, align 8, !tbaa !20
  store i8 %118, ptr %119, align 1, !tbaa !41
  br label %121

121:                                              ; preds = %115
  %122 = load i64, ptr %13, align 8, !tbaa !19
  %123 = add i64 %122, 1
  store i64 %123, ptr %13, align 8, !tbaa !19
  %124 = load i64, ptr %12, align 8, !tbaa !19
  %125 = lshr i64 %124, 8
  store i64 %125, ptr %12, align 8, !tbaa !19
  br label %112, !llvm.loop !62

126:                                              ; preds = %112
  br label %127

127:                                              ; preds = %133, %126
  %128 = load i64, ptr %13, align 8, !tbaa !19
  %129 = icmp ult i64 %128, 8
  br i1 %129, label %130, label %136

130:                                              ; preds = %127
  %131 = load ptr, ptr %14, align 8, !tbaa !20
  %132 = getelementptr inbounds nuw i8, ptr %131, i32 1
  store ptr %132, ptr %14, align 8, !tbaa !20
  store i8 0, ptr %131, align 1, !tbaa !41
  br label %133

133:                                              ; preds = %130
  %134 = load i64, ptr %13, align 8, !tbaa !19
  %135 = add i64 %134, 1
  store i64 %135, ptr %13, align 8, !tbaa !19
  br label %127, !llvm.loop !63

136:                                              ; preds = %127
  %137 = load ptr, ptr %10, align 8, !tbaa !20
  %138 = getelementptr inbounds i8, ptr %137, i64 8
  store ptr %138, ptr %10, align 8, !tbaa !20
  call void @llvm.lifetime.end.p0(i64 8, ptr %14) #7
  call void @llvm.lifetime.end.p0(i64 8, ptr %13) #7
  call void @llvm.lifetime.end.p0(i64 8, ptr %12) #7
  br label %139

139:                                              ; preds = %136
  br label %140

140:                                              ; preds = %139
  br label %167

141:                                              ; preds = %58
  br label %142

142:                                              ; preds = %141
  %143 = load ptr, ptr %9, align 8, !tbaa !26
  %144 = getelementptr inbounds nuw %struct.H5FA_hdr_t, ptr %143, i32 0, i32 3
  %145 = getelementptr inbounds nuw %struct.H5FA_stat_t, ptr %144, i32 0, i32 2
  %146 = load i64, ptr %145, align 8, !tbaa !61
  %147 = trunc i64 %146 to i32
  %148 = and i32 %147, 255
  %149 = trunc i32 %148 to i8
  %150 = load ptr, ptr %10, align 8, !tbaa !20
  store i8 %149, ptr %150, align 1, !tbaa !41
  %151 = load ptr, ptr %10, align 8, !tbaa !20
  %152 = getelementptr inbounds nuw i8, ptr %151, i32 1
  store ptr %152, ptr %10, align 8, !tbaa !20
  %153 = load ptr, ptr %9, align 8, !tbaa !26
  %154 = getelementptr inbounds nuw %struct.H5FA_hdr_t, ptr %153, i32 0, i32 3
  %155 = getelementptr inbounds nuw %struct.H5FA_stat_t, ptr %154, i32 0, i32 2
  %156 = load i64, ptr %155, align 8, !tbaa !61
  %157 = trunc i64 %156 to i32
  %158 = lshr i32 %157, 8
  %159 = and i32 %158, 255
  %160 = trunc i32 %159 to i8
  %161 = load ptr, ptr %10, align 8, !tbaa !20
  store i8 %160, ptr %161, align 1, !tbaa !41
  %162 = load ptr, ptr %10, align 8, !tbaa !20
  %163 = getelementptr inbounds nuw i8, ptr %162, i32 1
  store ptr %163, ptr %10, align 8, !tbaa !20
  br label %164

164:                                              ; preds = %142
  br label %165

165:                                              ; preds = %164
  br label %167

166:                                              ; preds = %58
  br label %167

167:                                              ; preds = %166, %165, %140, %104
  br label %168

168:                                              ; preds = %167
  br label %169

169:                                              ; preds = %168
  %170 = load ptr, ptr %5, align 8, !tbaa !58
  %171 = load ptr, ptr %9, align 8, !tbaa !26
  %172 = getelementptr inbounds nuw %struct.H5FA_hdr_t, ptr %171, i32 0, i32 2
  %173 = load i64, ptr %172, align 8, !tbaa !49
  call void @H5F_addr_encode(ptr noundef %170, ptr noundef %10, i64 noundef %173)
  %174 = load ptr, ptr %6, align 8, !tbaa !3
  %175 = load ptr, ptr %10, align 8, !tbaa !20
  %176 = load ptr, ptr %6, align 8, !tbaa !3
  %177 = ptrtoint ptr %175 to i64
  %178 = ptrtoint ptr %176 to i64
  %179 = sub i64 %177, %178
  %180 = call i32 @H5_checksum_metadata(ptr noundef %174, i64 noundef %179, i32 noundef 0)
  store i32 %180, ptr %11, align 4, !tbaa !22
  br label %181

181:                                              ; preds = %169
  %182 = load i32, ptr %11, align 4, !tbaa !22
  %183 = and i32 %182, 255
  %184 = trunc i32 %183 to i8
  %185 = load ptr, ptr %10, align 8, !tbaa !20
  store i8 %184, ptr %185, align 1, !tbaa !41
  %186 = load ptr, ptr %10, align 8, !tbaa !20
  %187 = getelementptr inbounds nuw i8, ptr %186, i32 1
  store ptr %187, ptr %10, align 8, !tbaa !20
  %188 = load i32, ptr %11, align 4, !tbaa !22
  %189 = lshr i32 %188, 8
  %190 = and i32 %189, 255
  %191 = trunc i32 %190 to i8
  %192 = load ptr, ptr %10, align 8, !tbaa !20
  store i8 %191, ptr %192, align 1, !tbaa !41
  %193 = load ptr, ptr %10, align 8, !tbaa !20
  %194 = getelementptr inbounds nuw i8, ptr %193, i32 1
  store ptr %194, ptr %10, align 8, !tbaa !20
  %195 = load i32, ptr %11, align 4, !tbaa !22
  %196 = lshr i32 %195, 16
  %197 = and i32 %196, 255
  %198 = trunc i32 %197 to i8
  %199 = load ptr, ptr %10, align 8, !tbaa !20
  store i8 %198, ptr %199, align 1, !tbaa !41
  %200 = load ptr, ptr %10, align 8, !tbaa !20
  %201 = getelementptr inbounds nuw i8, ptr %200, i32 1
  store ptr %201, ptr %10, align 8, !tbaa !20
  %202 = load i32, ptr %11, align 4, !tbaa !22
  %203 = lshr i32 %202, 24
  %204 = and i32 %203, 255
  %205 = trunc i32 %204 to i8
  %206 = load ptr, ptr %10, align 8, !tbaa !20
  store i8 %205, ptr %206, align 1, !tbaa !41
  %207 = load ptr, ptr %10, align 8, !tbaa !20
  %208 = getelementptr inbounds nuw i8, ptr %207, i32 1
  store ptr %208, ptr %10, align 8, !tbaa !20
  br label %209

209:                                              ; preds = %181
  br label %210

210:                                              ; preds = %209
  br label %211

211:                                              ; preds = %210, %23
  call void @llvm.lifetime.end.p0(i64 4, ptr %11) #7
  call void @llvm.lifetime.end.p0(i64 8, ptr %10) #7
  call void @llvm.lifetime.end.p0(i64 8, ptr %9) #7
  ret i32 0
}