; Function Attrs: nounwind uwtable
define internal noundef i32 @H5FA__cache_hdr_serialize(ptr noundef %0, ptr noundef %1, i64 %2, ptr noundef readonly captures(none) %3) #0 {
  %5 = alloca ptr, align 8
  call void @llvm.lifetime.start.p0(i64 8, ptr nonnull %5) #6
  %6 = load i8, ptr @H5FA_init_g, align 1, !tbaa !3, !range !7, !noundef !8
  %7 = trunc nuw i8 %6 to i1
  %8 = load i8, ptr @H5_libterm_g, align 1, !range !7
  %9 = trunc nuw i8 %8 to i1
  %10 = xor i1 %9, true
  %11 = select i1 %7, i1 true, i1 %10
  br i1 %11, label %12, label %82, !prof !9

12:                                               ; preds = %4
  store i32 1145585990, ptr %1, align 1
  %13 = getelementptr inbounds nuw i8, ptr %1, i64 4
  %14 = getelementptr inbounds nuw i8, ptr %1, i64 5
  store i8 0, ptr %13, align 1, !tbaa !34
  %15 = getelementptr inbounds nuw i8, ptr %3, i64 248
  %16 = load ptr, ptr %15, align 8, !tbaa !36
  %17 = load i32, ptr %16, align 8, !tbaa !47
  %18 = trunc i32 %17 to i8
  %19 = getelementptr inbounds nuw i8, ptr %1, i64 6
  store i8 %18, ptr %14, align 1, !tbaa !34
  %20 = getelementptr inbounds nuw i8, ptr %3, i64 256
  %21 = load i8, ptr %20, align 8, !tbaa !37
  %22 = getelementptr inbounds nuw i8, ptr %1, i64 7
  store i8 %21, ptr %19, align 1, !tbaa !34
  %23 = getelementptr inbounds nuw i8, ptr %3, i64 257
  %24 = load i8, ptr %23, align 1, !tbaa !38
  %25 = getelementptr inbounds nuw i8, ptr %1, i64 8
  store ptr %25, ptr %5, align 8, !tbaa !18
  store i8 %24, ptr %22, align 1, !tbaa !34
  %26 = tail call zeroext i8 @H5F_sizeof_size(ptr noundef %0) #6
  switch i8 %26, label %60 [
    i8 4, label %27
    i8 8, label %43
    i8 2, label %51
  ]

27:                                               ; preds = %12
  %28 = getelementptr inbounds nuw i8, ptr %3, i64 296
  %29 = load i64, ptr %28, align 8, !tbaa !49
  %30 = trunc i64 %29 to i8
  store i8 %30, ptr %25, align 1, !tbaa !34
  %31 = getelementptr inbounds nuw i8, ptr %1, i64 9
  %32 = load i64, ptr %28, align 8, !tbaa !49
  %33 = lshr i64 %32, 8
  %34 = trunc i64 %33 to i8
  store i8 %34, ptr %31, align 1, !tbaa !34
  %35 = getelementptr inbounds nuw i8, ptr %1, i64 10
  %36 = load i64, ptr %28, align 8, !tbaa !49
  %37 = lshr i64 %36, 16
  %38 = trunc i64 %37 to i8
  store i8 %38, ptr %35, align 1, !tbaa !34
  %39 = getelementptr inbounds nuw i8, ptr %1, i64 11
  %40 = load i64, ptr %28, align 8, !tbaa !49
  %41 = lshr i64 %40, 24
  %42 = trunc i64 %41 to i8
  store i8 %42, ptr %39, align 1, !tbaa !34
  br label %.sink.split

43:                                               ; preds = %12
  %44 = getelementptr inbounds nuw i8, ptr %3, i64 296
  %45 = load i64, ptr %44, align 8, !tbaa !49
  br label %46

46:                                               ; preds = %43, %46
  %.033 = phi ptr [ %25, %43 ], [ %48, %46 ]
  %.02832 = phi i64 [ 0, %43 ], [ %49, %46 ]
  %.03031 = phi i64 [ %45, %43 ], [ %50, %46 ]
  %47 = trunc i64 %.03031 to i8
  %48 = getelementptr inbounds nuw i8, ptr %.033, i64 1
  store i8 %47, ptr %.033, align 1, !tbaa !34
  %49 = add nuw nsw i64 %.02832, 1
  %50 = lshr i64 %.03031, 8
  %exitcond.not = icmp eq i64 %49, 8
  br i1 %exitcond.not, label %.sink.split, label %46, !llvm.loop !50

51:                                               ; preds = %12
  %52 = getelementptr inbounds nuw i8, ptr %3, i64 296
  %53 = load i64, ptr %52, align 8, !tbaa !49
  %54 = trunc i64 %53 to i8
  store i8 %54, ptr %25, align 1, !tbaa !34
  %55 = getelementptr inbounds nuw i8, ptr %1, i64 9
  %56 = load i64, ptr %52, align 8, !tbaa !49
  %57 = lshr i64 %56, 8
  %58 = trunc i64 %57 to i8
  store i8 %58, ptr %55, align 1, !tbaa !34
  br label %.sink.split

.sink.split:                                      ; preds = %46, %27, %51
  %.sink34 = phi i64 [ 10, %51 ], [ 12, %27 ], [ 16, %46 ]
  %59 = getelementptr inbounds nuw i8, ptr %1, i64 %.sink34
  store ptr %59, ptr %5, align 8, !tbaa !18
  br label %60

60:                                               ; preds = %.sink.split, %12
  %61 = getelementptr inbounds nuw i8, ptr %3, i64 272
  %62 = load i64, ptr %61, align 8, !tbaa !42
  call void @H5F_addr_encode(ptr noundef %0, ptr noundef nonnull %5, i64 noundef %62) #6
  %63 = load ptr, ptr %5, align 8, !tbaa !18
  %64 = ptrtoint ptr %63 to i64
  %65 = ptrtoint ptr %1 to i64
  %66 = sub i64 %64, %65
  %67 = call i32 @H5_checksum_metadata(ptr noundef nonnull %1, i64 noundef %66, i32 noundef 0) #6
  %68 = trunc i32 %67 to i8
  %69 = load ptr, ptr %5, align 8, !tbaa !18
  store i8 %68, ptr %69, align 1, !tbaa !34
  %70 = load ptr, ptr %5, align 8, !tbaa !18
  %71 = getelementptr inbounds nuw i8, ptr %70, i64 1
  store ptr %71, ptr %5, align 8, !tbaa !18
  %72 = lshr i32 %67, 8
  %73 = trunc i32 %72 to i8
  store i8 %73, ptr %71, align 1, !tbaa !34
  %74 = load ptr, ptr %5, align 8, !tbaa !18
  %75 = getelementptr inbounds nuw i8, ptr %74, i64 1
  store ptr %75, ptr %5, align 8, !tbaa !18
  %76 = lshr i32 %67, 16
  %77 = trunc i32 %76 to i8
  store i8 %77, ptr %75, align 1, !tbaa !34
  %78 = load ptr, ptr %5, align 8, !tbaa !18
  %79 = getelementptr inbounds nuw i8, ptr %78, i64 1
  %80 = lshr i32 %67, 24
  %81 = trunc nuw i32 %80 to i8
  store i8 %81, ptr %79, align 1, !tbaa !34
  br label %82

82:                                               ; preds = %60, %4
  call void @llvm.lifetime.end.p0(i64 8, ptr nonnull %5) #6
  ret i32 0
}